target datalayout = "e-m:e-p270:32:32-p271:32:32-p272:64:64-i64:64-i128:128-f80:128-n8:16:32:64-S128"
target triple = "x86_64-pc-linux-gnu"

%struct.curltime = type { i64, i32 }
%struct.Curl_llist_node = type { ptr, ptr, ptr, ptr }
%struct.easy_pollset = type { [5 x i32], i32, [5 x i8] }
%struct.ssl_primary_config = type { ptr, ptr, ptr, ptr, ptr, ptr, ptr, ptr, ptr, ptr, ptr, ptr, i8, i32, i8, i8 }
%struct.dynbuf = type { ptr, i64, i64, i64 }
%struct.Curl_llist = type { ptr, ptr, ptr, i64 }
%struct.ip_quadruple = type { [46 x i8], [46 x i8], i32, i32 }
%struct.connectdata = type { %struct.Curl_llist_node, ptr, ptr, i64, ptr, i64, ptr, ptr, %struct.hostname, ptr, ptr, %struct.hostname, %struct.proxy_info, %struct.proxy_info, %struct.ip_quadruple, %struct.ip_quadruple, ptr, ptr, ptr, ptr, ptr, %struct.curltime, %struct.curltime, %struct.curltime, [2 x i32], [2 x ptr], [2 x ptr], [2 x ptr], %struct.anon, %struct.easy_pollset, %struct.ssl_primary_config, %struct.ssl_primary_config, %struct.ConnectBits, ptr, ptr, %struct.curltime, i32, i32, %struct.Curl_llist, i32, i32, %struct.ntlmdata, %struct.ntlmdata, %union.anon.1, ptr, i16, i32, i32, i32, i32, i16, i16, i8, i8, i8, i8, i8, i8, i8 }
%struct.hostname = type { ptr, ptr, ptr, ptr }
%struct.proxy_info = type { %struct.hostname, i32, i8, ptr, ptr }
%struct.anon = type { [2 x %struct.curltime], i32 }
%struct.ConnectBits = type { i64 }
%struct.ntlmdata = type { i32, [8 x i8], i32, ptr }
%union.anon.1 = type { %struct.ftp_conn }
%struct.ftp_conn = type { %struct.pingpong, ptr, ptr, ptr, ptr, ptr, ptr, ptr, i8, i64, ptr, i64, i32, i32, i32, i32, i32, i16, i8, i8, i8, i8, i8 }
%struct.pingpong = type { i64, i8, ptr, i64, i64, %struct.curltime, i64, %struct.dynbuf, %struct.dynbuf, i64, i64, ptr, ptr }

; Function Attrs: nounwind uwtable
define dso_local i64 @Curl_shutdown_timeleft(ptr noundef %0, i32 noundef %1, ptr noundef %2) #0 {
  %4 = alloca i64, align 8
  %5 = alloca ptr, align 8
  %6 = alloca i32, align 4
  %7 = alloca ptr, align 8
  %8 = alloca %struct.curltime, align 8
  %9 = alloca i64, align 8
  %10 = alloca i32, align 4
  %11 = alloca %struct.curltime, align 8
  store ptr %0, ptr %5, align 8, !tbaa !99
  store i32 %1, ptr %6, align 4, !tbaa !86
  store ptr %2, ptr %7, align 8, !tbaa !9
  call void @llvm.lifetime.start.p0(i64 16, ptr %8) #8
  call void @llvm.lifetime.start.p0(i64 8, ptr %9) #8
  %12 = load ptr, ptr %5, align 8, !tbaa !99
  %13 = getelementptr inbounds nuw %struct.connectdata, ptr %12, i32 0, i32 28
  %14 = getelementptr inbounds nuw %struct.anon, ptr %13, i32 0, i32 0
  %15 = load i32, ptr %6, align 4, !tbaa !86
  %16 = sext i32 %15 to i64
  %17 = getelementptr inbounds [2 x %struct.curltime], ptr %14, i64 0, i64 %16
  %18 = getelementptr inbounds nuw %struct.curltime, ptr %17, i32 0, i32 0
  %19 = load i64, ptr %18, align 8, !tbaa !100
  %20 = icmp ne i64 %19, 0
  br i1 %20, label %21, label %27

21:                                               ; preds = %3
  %22 = load ptr, ptr %5, align 8, !tbaa !99
  %23 = getelementptr inbounds nuw %struct.connectdata, ptr %22, i32 0, i32 28
  %24 = getelementptr inbounds nuw %struct.anon, ptr %23, i32 0, i32 1
  %25 = load i32, ptr %24, align 8, !tbaa !90
  %26 = icmp ne i32 %25, 0
  br i1 %26, label %28, label %27

27:                                               ; preds = %21, %3
  store i64 0, ptr %4, align 8
  store i32 1, ptr %10, align 4
  br label %67

28:                                               ; preds = %21
  %29 = load ptr, ptr %7, align 8, !tbaa !9
  %30 = icmp ne ptr %29, null
  br i1 %30, label %37, label %31

31:                                               ; preds = %28
  call void @llvm.lifetime.start.p0(i64 16, ptr %11) #8
  %32 = call { i64, i32 } @Curl_now()
  %33 = getelementptr inbounds nuw { i64, i32 }, ptr %11, i32 0, i32 0
  %34 = extractvalue { i64, i32 } %32, 0
  store i64 %34, ptr %33, align 8
  %35 = getelementptr inbounds nuw { i64, i32 }, ptr %11, i32 0, i32 1
  %36 = extractvalue { i64, i32 } %32, 1
  store i32 %36, ptr %35, align 8
  call void @llvm.memcpy.p0.p0.i64(ptr align 8 %8, ptr align 8 %11, i64 16, i1 false), !tbaa.struct !85
  call void @llvm.lifetime.end.p0(i64 16, ptr %11) #8
  store ptr %8, ptr %7, align 8, !tbaa !9
  br label %37

37:                                               ; preds = %31, %28
  %38 = load ptr, ptr %5, align 8, !tbaa !99
  %39 = getelementptr inbounds nuw %struct.connectdata, ptr %38, i32 0, i32 28
  %40 = getelementptr inbounds nuw %struct.anon, ptr %39, i32 0, i32 1
  %41 = load i32, ptr %40, align 8, !tbaa !90
  %42 = zext i32 %41 to i64
  %43 = load ptr, ptr %7, align 8, !tbaa !9
  %44 = load ptr, ptr %5, align 8, !tbaa !99
  %45 = getelementptr inbounds nuw %struct.connectdata, ptr %44, i32 0, i32 28
  %46 = getelementptr inbounds nuw %struct.anon, ptr %45, i32 0, i32 0
  %47 = load i32, ptr %6, align 4, !tbaa !86
  %48 = sext i32 %47 to i64
  %49 = getelementptr inbounds [2 x %struct.curltime], ptr %46, i64 0, i64 %48
  %50 = getelementptr inbounds nuw { i64, i32 }, ptr %43, i32 0, i32 0
  %51 = load i64, ptr %50, align 8
  %52 = getelementptr inbounds nuw { i64, i32 }, ptr %43, i32 0, i32 1
  %53 = load i32, ptr %52, align 8
  %54 = getelementptr inbounds nuw { i64, i32 }, ptr %49, i32 0, i32 0
  %55 = load i64, ptr %54, align 8
  %56 = getelementptr inbounds nuw { i64, i32 }, ptr %49, i32 0, i32 1
  %57 = load i32, ptr %56, align 8
  %58 = call i64 @Curl_timediff(i64 %51, i32 %53, i64 %55, i32 %57)
  %59 = sub nsw i64 %42, %58
  store i64 %59, ptr %9, align 8, !tbaa !13
  %60 = load i64, ptr %9, align 8, !tbaa !13
  %61 = icmp ne i64 %60, 0
  br i1 %61, label %62, label %64

62:                                               ; preds = %37
  %63 = load i64, ptr %9, align 8, !tbaa !13
  br label %65

64:                                               ; preds = %37
  br label %65

65:                                               ; preds = %64, %62
  %66 = phi i64 [ %63, %62 ], [ -1, %64 ]
  store i64 %66, ptr %4, align 8
  store i32 1, ptr %10, align 4
  br label %67

67:                                               ; preds = %65, %27
  call void @llvm.lifetime.end.p0(i64 8, ptr %9) #8
  call void @llvm.lifetime.end.p0(i64 16, ptr %8) #8
  %68 = load i64, ptr %4, align 8
  ret i64 %68
}