; Function Attrs: nounwind uwtable
define dso_local range(i64 -9223372036854775807, -9223372036854775808) i64 @Curl_shutdown_timeleft(ptr noundef readonly captures(none) %0, i32 noundef %1, ptr noundef readonly %2) local_unnamed_addr #0 {
  %4 = getelementptr inbounds nuw i8, ptr %0, i64 624
  %5 = sext i32 %1 to i64
  %6 = getelementptr inbounds [2 x %struct.curltime], ptr %4, i64 0, i64 %5
  %7 = load i64, ptr %6, align 8, !tbaa !92
  %.not = icmp eq i64 %7, 0
  %.010.sroa.gep13 = getelementptr inbounds nuw i8, ptr %2, i64 8
  br i1 %.not, label %27, label %8

8:                                                ; preds = %3
  %9 = getelementptr inbounds nuw i8, ptr %0, i64 656
  %10 = load i32, ptr %9, align 8, !tbaa !83
  %.not16 = icmp eq i32 %10, 0
  br i1 %.not16, label %27, label %11

11:                                               ; preds = %8
  %.not17 = icmp eq ptr %2, null
  br i1 %.not17, label %12, label %._crit_edge

._crit_edge:                                      ; preds = %11
  %.pre19 = load i64, ptr %2, align 8
  %.pre20 = load i32, ptr %.010.sroa.gep13, align 8
  br label %16

12:                                               ; preds = %11
  %13 = tail call { i64, i32 } @Curl_now() #10
  %14 = extractvalue { i64, i32 } %13, 0
  %15 = extractvalue { i64, i32 } %13, 1
  %.pre = load i32, ptr %9, align 8, !tbaa !83
  %.pre21 = load i64, ptr %6, align 8
  br label %16

16:                                               ; preds = %._crit_edge, %12
  %17 = phi i64 [ %7, %._crit_edge ], [ %.pre21, %12 ]
  %18 = phi i32 [ %.pre20, %._crit_edge ], [ %15, %12 ]
  %19 = phi i64 [ %.pre19, %._crit_edge ], [ %14, %12 ]
  %20 = phi i32 [ %10, %._crit_edge ], [ %.pre, %12 ]
  %21 = zext i32 %20 to i64
  %22 = getelementptr inbounds nuw i8, ptr %6, i64 8
  %23 = load i32, ptr %22, align 8
  %24 = tail call i64 @Curl_timediff(i64 %19, i32 %18, i64 %17, i32 %23) #10
  %25 = sub nsw i64 %21, %24
  %.not18 = icmp eq i64 %24, %21
  %26 = select i1 %.not18, i64 -1, i64 %25
  br label %27

27:                                               ; preds = %3, %8, %16
  %.0 = phi i64 [ %26, %16 ], [ 0, %8 ], [ 0, %3 ]
  ret i64 %.0
}